target datalayout = "e-m:e-p270:32:32-p271:32:32-p272:64:64-i64:64-i128:128-f80:128-n8:16:32:64-S128"
target triple = "x86_64-unknown-linux-gnu"

%struct.pcpu_hot = type { %union.anon.19 }
%union.anon.19 = type { %struct.anon.20, [16 x i8] }
%struct.anon.20 = type { ptr, i32, i32, i64, i64, ptr, i16, i8 }

@blk_tracer_enabled = internal unnamed_addr global i1 false, section ".data..read_mostly", align 1
@this_cpu_off = external dso_local global i64, section ".data..percpu..read_mostly", align 8
@pcpu_hot = external dso_local global %struct.pcpu_hot, section ".data..percpu..shared_aligned", align 64
@blk_tr = internal unnamed_addr global ptr null, align 8

; Function Attrs: fn_ret_thunk_extern nounwind null_pointer_is_valid
define internal fastcc void @trace_note(ptr nocapture noundef readonly %0, i32 noundef %1, i32 noundef %2, ptr nocapture noundef readonly %3, i64 noundef %4, i64 noundef %5) unnamed_addr #0 align 16 {
  %7 = alloca i64, align 8
  store i64 %5, ptr %7, align 8
  %8 = tail call i32 asm "movl %gs:$1, $0", "=r,*m,~{dirflag},~{fpsr},~{flags}"(ptr nonnull elementtype(i32) getelementptr inbounds (%struct.pcpu_hot, ptr @pcpu_hot, i64 0, i32 0, i32 0, i32 2)) #22, !srcloc !13
  %9 = load i1, ptr @blk_tracer_enabled, align 1
  %10 = icmp eq i64 %5, 0
  %11 = select i1 %10, i64 0, i64 8
  br i1 %9, label %12, label %23

12:                                               ; preds = %6
  %13 = load ptr, ptr @blk_tr, align 8
  %14 = getelementptr inbounds i8, ptr %13, i64 32
  %15 = load ptr, ptr %14, align 8
  %16 = tail call i32 @tracing_gen_ctx_irq_test(i32 noundef 1) #21
  %17 = add i64 %11, %4
  %18 = add i64 %17, 48
  %19 = tail call ptr @trace_buffer_lock_reserve(ptr noundef %15, i32 noundef 13, i64 noundef %18, i32 noundef %16) #21
  %20 = icmp eq ptr %19, null
  br i1 %20, label %91, label %21

21:                                               ; preds = %12
  %22 = tail call ptr @ring_buffer_event_data(ptr noundef nonnull %19) #21
  br label %66

23:                                               ; preds = %6
  %24 = getelementptr inbounds i8, ptr %0, i64 8
  %25 = load ptr, ptr %24, align 8
  %26 = icmp eq ptr %25, null
  br i1 %26, label %91, label %27

27:                                               ; preds = %23
  %28 = add i64 %11, %4
  %29 = add i64 %28, 48
  tail call void asm "incl %gs:$0", "=*m,*m,~{dirflag},~{fpsr},~{flags}"(ptr nonnull elementtype(i32) getelementptr inbounds (%struct.pcpu_hot, ptr @pcpu_hot, i64 0, i32 0, i32 0, i32 1), ptr nonnull elementtype(i32) getelementptr inbounds (%struct.pcpu_hot, ptr @pcpu_hot, i64 0, i32 0, i32 0, i32 1)) #21, !srcloc !14
  tail call void asm sideeffect "", "~{memory},~{dirflag},~{fpsr},~{flags}"() #21, !srcloc !15
  %30 = getelementptr inbounds i8, ptr %25, i64 64
  %31 = load ptr, ptr %30, align 8
  %32 = tail call i64 asm "add %gs:$1, $0", "=r,*m,0,~{dirflag},~{fpsr},~{flags}"(ptr nonnull elementtype(i64) @this_cpu_off, ptr %31) #22, !srcloc !16
  %33 = inttoptr i64 %32 to ptr
  %34 = load ptr, ptr %33, align 8
  %35 = getelementptr inbounds i8, ptr %34, i64 16
  %36 = load i64, ptr %35, align 16
  %37 = add i64 %36, %29
  %38 = getelementptr inbounds i8, ptr %34, i64 40
  %39 = load ptr, ptr %38, align 8
  %40 = getelementptr inbounds i8, ptr %39, i64 8
  %41 = load i64, ptr %40, align 8
  %42 = icmp ugt i64 %37, %41
  br i1 %42, label %43, label %46, !prof !17

43:                                               ; preds = %27
  %44 = tail call i64 @relay_switch_subbuf(ptr noundef %34, i64 noundef %29) #21
  %45 = icmp eq i64 %44, 0
  br i1 %45, label %53, label %46

46:                                               ; preds = %43, %27
  %47 = phi i64 [ %44, %43 ], [ %29, %27 ]
  %48 = getelementptr inbounds i8, ptr %34, i64 8
  %49 = load ptr, ptr %48, align 8
  %50 = load i64, ptr %35, align 16
  %51 = getelementptr i8, ptr %49, i64 %50
  %52 = add i64 %50, %47
  store i64 %52, ptr %35, align 16
  br label %53

53:                                               ; preds = %46, %43
  %54 = phi ptr [ %51, %46 ], [ null, %43 ]
  tail call void asm sideeffect "", "~{memory},~{dirflag},~{fpsr},~{flags}"() #21, !srcloc !18
  %55 = tail call i8 asm sideeffect "decl %gs:$0\0A\09/* output condition code e*/\0A", "=*m,={@cce},*m,~{memory},~{dirflag},~{fpsr},~{flags}"(ptr nonnull elementtype(i32) getelementptr inbounds (%struct.pcpu_hot, ptr @pcpu_hot, i64 0, i32 0, i32 0, i32 1), ptr nonnull elementtype(i32) getelementptr inbounds (%struct.pcpu_hot, ptr @pcpu_hot, i64 0, i32 0, i32 0, i32 1)) #21, !srcloc !19
  %56 = icmp ult i8 %55, 2
  tail call void @llvm.assume(i1 %56)
  %57 = icmp eq i8 %55, 0
  br i1 %57, label %61, label %58, !prof !7

58:                                               ; preds = %53
  %59 = tail call i64 @llvm.read_register.i64(metadata !0)
  %60 = tail call i64 asm sideeffect "call __SCT__preempt_schedule", "={rsp},{rsp},~{dirflag},~{fpsr},~{flags}"(i64 %59) #21, !srcloc !20
  tail call void @llvm.write_register.i64(metadata !0, i64 %60)
  br label %61

61:                                               ; preds = %58, %53
  %62 = icmp eq ptr %54, null
  br i1 %62, label %91, label %63

63:                                               ; preds = %61
  store i32 1700885511, ptr %54, align 8
  %64 = tail call i64 @ktime_get() #21
  %65 = getelementptr inbounds i8, ptr %54, i64 8
  store i64 %64, ptr %65, align 8
  br label %66

66:                                               ; preds = %63, %21
  %67 = phi i32 [ %16, %21 ], [ 0, %63 ]
  %68 = phi ptr [ %15, %21 ], [ null, %63 ]
  %69 = phi ptr [ %19, %21 ], [ null, %63 ]
  %70 = phi ptr [ %22, %21 ], [ %54, %63 ]
  %71 = getelementptr inbounds i8, ptr %0, i64 60
  %72 = load i32, ptr %71, align 4
  %73 = getelementptr inbounds i8, ptr %70, i64 36
  store i32 %72, ptr %73, align 4
  %74 = load i64, ptr %7, align 8
  %75 = icmp eq i64 %74, 0
  %76 = select i1 %75, i32 0, i32 256
  %77 = or i32 %76, %2
  %78 = getelementptr inbounds i8, ptr %70, i64 28
  store i32 %77, ptr %78, align 4
  %79 = getelementptr inbounds i8, ptr %70, i64 32
  store i32 %1, ptr %79, align 8
  %80 = getelementptr inbounds i8, ptr %70, i64 40
  store i32 %8, ptr %80, align 8
  %81 = add nsw i64 %11, %4
  %82 = trunc i64 %81 to i16
  %83 = getelementptr inbounds i8, ptr %70, i64 46
  store i16 %82, ptr %83, align 2
  br i1 %10, label %86, label %84

84:                                               ; preds = %66
  %85 = getelementptr i8, ptr %70, i64 48
  call void @llvm.memcpy.p0.p0.i64(ptr align 1 %85, ptr nonnull align 8 %7, i64 %11, i1 false)
  br label %86

86:                                               ; preds = %84, %66
  %87 = getelementptr i8, ptr %70, i64 48
  %88 = getelementptr i8, ptr %87, i64 %11
  tail call void @llvm.memcpy.p0.p0.i64(ptr align 1 %88, ptr align 1 %3, i64 %4, i1 false)
  br i1 %9, label %89, label %91

89:                                               ; preds = %86
  %90 = load ptr, ptr @blk_tr, align 8
  tail call void @trace_buffer_unlock_commit_regs(ptr noundef %90, ptr noundef %68, ptr noundef %69, i32 noundef %67, ptr noundef null) #21
  br label %91

91:                                               ; preds = %89, %86, %61, %23, %12
  ret void
}