; Function Attrs: fn_ret_thunk_extern nounwind null_pointer_is_valid
define internal fastcc void @trace_note(ptr nocapture noundef readonly %0, i32 noundef %1, i32 noundef %2, ptr nocapture noundef readonly %3, i64 noundef %4, i64 noundef %5) unnamed_addr #0 align 16 {
  %7 = tail call i32 asm "movl %gs:$1, $0", "=r,*m,~{dirflag},~{fpsr},~{flags}"(ptr nonnull elementtype(i32) getelementptr inbounds (%struct.pcpu_hot, ptr @pcpu_hot, i64 0, i32 0, i32 0, i32 2)) #22, !srcloc !13
  %8 = load i1, ptr @blk_tracer_enabled, align 1
  %9 = icmp eq i64 %5, 0
  %10 = select i1 %9, i64 0, i64 8
  br i1 %8, label %11, label %22

11:                                               ; preds = %6
  %12 = load ptr, ptr @blk_tr, align 8
  %13 = getelementptr inbounds i8, ptr %12, i64 32
  %14 = load ptr, ptr %13, align 8
  %15 = tail call i32 @tracing_gen_ctx_irq_test(i32 noundef 1) #21
  %16 = add nsw i64 %10, %4
  %17 = add nsw i64 %16, 48
  %18 = tail call ptr @trace_buffer_lock_reserve(ptr noundef %14, i32 noundef 13, i64 noundef %17, i32 noundef %15) #21
  %19 = icmp eq ptr %18, null
  br i1 %19, label %85, label %20

20:                                               ; preds = %11
  %21 = tail call ptr @ring_buffer_event_data(ptr noundef nonnull %18) #21
  br label %63

22:                                               ; preds = %6
  %23 = getelementptr inbounds i8, ptr %0, i64 8
  %24 = load ptr, ptr %23, align 8
  %25 = icmp eq ptr %24, null
  br i1 %25, label %85, label %26

26:                                               ; preds = %22
  %27 = add nsw i64 %10, %4
  %28 = add nsw i64 %27, 48
  tail call void asm "incl %gs:$0", "=*m,*m,~{dirflag},~{fpsr},~{flags}"(ptr nonnull elementtype(i32) getelementptr inbounds (%struct.pcpu_hot, ptr @pcpu_hot, i64 0, i32 0, i32 0, i32 1), ptr nonnull elementtype(i32) getelementptr inbounds (%struct.pcpu_hot, ptr @pcpu_hot, i64 0, i32 0, i32 0, i32 1)) #21, !srcloc !14
  tail call void asm sideeffect "", "~{memory},~{dirflag},~{fpsr},~{flags}"() #21, !srcloc !15
  %29 = getelementptr inbounds i8, ptr %24, i64 64
  %30 = load ptr, ptr %29, align 8
  %31 = tail call i64 asm "add %gs:$1, $0", "=r,*m,0,~{dirflag},~{fpsr},~{flags}"(ptr nonnull elementtype(i64) @this_cpu_off, ptr %30) #22, !srcloc !16
  %32 = inttoptr i64 %31 to ptr
  %33 = load ptr, ptr %32, align 8
  %34 = getelementptr inbounds i8, ptr %33, i64 16
  %35 = load i64, ptr %34, align 16
  %36 = add i64 %35, %28
  %37 = getelementptr inbounds i8, ptr %33, i64 40
  %38 = load ptr, ptr %37, align 8
  %39 = getelementptr inbounds i8, ptr %38, i64 8
  %40 = load i64, ptr %39, align 8
  %41 = icmp ugt i64 %36, %40
  br i1 %41, label %42, label %45, !prof !17

42:                                               ; preds = %26
  %43 = tail call i64 @relay_switch_subbuf(ptr noundef %33, i64 noundef %28) #21
  %44 = icmp eq i64 %43, 0
  br i1 %44, label %50, label %._crit_edge

._crit_edge:                                      ; preds = %42
  %.pre = load i64, ptr %34, align 16
  %.pre5 = add i64 %.pre, %43
  br label %45

45:                                               ; preds = %._crit_edge, %26
  %.pre-phi6 = phi i64 [ %.pre5, %._crit_edge ], [ %36, %26 ]
  %46 = phi i64 [ %.pre, %._crit_edge ], [ %35, %26 ]
  %47 = getelementptr inbounds i8, ptr %33, i64 8
  %48 = load ptr, ptr %47, align 8
  %49 = getelementptr i8, ptr %48, i64 %46
  store i64 %.pre-phi6, ptr %34, align 16
  br label %50

50:                                               ; preds = %45, %42
  %51 = phi ptr [ %49, %45 ], [ null, %42 ]
  tail call void asm sideeffect "", "~{memory},~{dirflag},~{fpsr},~{flags}"() #21, !srcloc !18
  %52 = tail call i8 asm sideeffect "decl %gs:$0\0A\09/* output condition code e*/\0A", "=*m,={@cce},*m,~{memory},~{dirflag},~{fpsr},~{flags}"(ptr nonnull elementtype(i32) getelementptr inbounds (%struct.pcpu_hot, ptr @pcpu_hot, i64 0, i32 0, i32 0, i32 1), ptr nonnull elementtype(i32) getelementptr inbounds (%struct.pcpu_hot, ptr @pcpu_hot, i64 0, i32 0, i32 0, i32 1)) #21, !srcloc !19
  %53 = icmp ult i8 %52, 2
  tail call void @llvm.assume(i1 %53)
  %54 = icmp eq i8 %52, 0
  br i1 %54, label %58, label %55, !prof !6

55:                                               ; preds = %50
  %56 = tail call i64 @llvm.read_register.i64(metadata !0)
  %57 = tail call i64 asm sideeffect "call __SCT__preempt_schedule", "={rsp},{rsp},~{dirflag},~{fpsr},~{flags}"(i64 %56) #21, !srcloc !20
  tail call void @llvm.write_register.i64(metadata !0, i64 %57)
  br label %58

58:                                               ; preds = %55, %50
  %59 = icmp eq ptr %51, null
  br i1 %59, label %85, label %60

60:                                               ; preds = %58
  store i32 1700885511, ptr %51, align 8
  %61 = tail call i64 @ktime_get() #21
  %62 = getelementptr inbounds i8, ptr %51, i64 8
  store i64 %61, ptr %62, align 8
  br label %63

63:                                               ; preds = %60, %20
  %.pre-phi = phi i64 [ %27, %60 ], [ %16, %20 ]
  %64 = phi i32 [ 0, %60 ], [ %15, %20 ]
  %65 = phi ptr [ null, %60 ], [ %14, %20 ]
  %66 = phi ptr [ null, %60 ], [ %18, %20 ]
  %67 = phi ptr [ %51, %60 ], [ %21, %20 ]
  %68 = getelementptr inbounds i8, ptr %0, i64 60
  %69 = load i32, ptr %68, align 4
  %70 = getelementptr inbounds i8, ptr %67, i64 36
  store i32 %69, ptr %70, align 4
  %71 = select i1 %9, i32 0, i32 256
  %72 = or i32 %71, %2
  %73 = getelementptr inbounds i8, ptr %67, i64 28
  store i32 %72, ptr %73, align 4
  %74 = getelementptr inbounds i8, ptr %67, i64 32
  store i32 %1, ptr %74, align 8
  %75 = getelementptr inbounds i8, ptr %67, i64 40
  store i32 %7, ptr %75, align 8
  %76 = trunc i64 %.pre-phi to i16
  %77 = getelementptr inbounds i8, ptr %67, i64 46
  store i16 %76, ptr %77, align 2
  br i1 %9, label %80, label %78

78:                                               ; preds = %63
  %79 = getelementptr i8, ptr %67, i64 48
  store i64 %5, ptr %79, align 1
  br label %80

80:                                               ; preds = %78, %63
  %81 = getelementptr i8, ptr %67, i64 48
  %82 = getelementptr i8, ptr %81, i64 %10
  tail call void @llvm.memcpy.p0.p0.i64(ptr align 1 %82, ptr align 1 %3, i64 %4, i1 false)
  br i1 %8, label %83, label %85

83:                                               ; preds = %80
  %84 = load ptr, ptr @blk_tr, align 8
  tail call void @trace_buffer_unlock_commit_regs(ptr noundef %84, ptr noundef %65, ptr noundef %66, i32 noundef %64, ptr noundef null) #21
  br label %85

85:                                               ; preds = %83, %80, %58, %22, %11
  ret void
}